target datalayout = "e-m:e-p270:32:32-p271:32:32-p272:64:64-i64:64-i128:128-f80:128-n8:16:32:64-S128"
target triple = "x86_64-pc-linux-gnu"

%struct.sockaddr_storage = type { i16, [118 x i8], i64 }

; Function Attrs: nounwind uwtable
define dso_local i32 @net_stream_listen(ptr noundef %0, ptr noundef %1) #0 {
  %3 = alloca i32, align 4
  %4 = alloca ptr, align 8
  %5 = alloca ptr, align 8
  %6 = alloca %struct.sockaddr_storage, align 8
  %7 = alloca i32, align 4
  %8 = alloca i32, align 4
  %9 = alloca i32, align 4
  store ptr %0, ptr %4, align 8
  store ptr %1, ptr %5, align 8
  call void @llvm.lifetime.start.p0(i64 128, ptr %6) #9
  call void @llvm.lifetime.start.p0(i64 4, ptr %7) #9
  store i32 128, ptr %7, align 4
  call void @llvm.lifetime.start.p0(i64 4, ptr %8) #9
  store i32 1, ptr %8, align 4
  call void @slurm_setup_addr(ptr noundef %6, i16 noundef zeroext 0)
  %10 = getelementptr inbounds nuw %struct.sockaddr_storage, ptr %6, i32 0, i32 0
  %11 = load i16, ptr %10, align 8
  %12 = zext i16 %11 to i32
  %13 = call i32 @socket(i32 noundef %12, i32 noundef 1, i32 noundef 6) #9
  %14 = load ptr, ptr %4, align 8
  store i32 %13, ptr %14, align 4
  %15 = icmp slt i32 %13, 0
  br i1 %15, label %16, label %17

16:                                               ; preds = %2
  store i32 -1, ptr %3, align 4
  store i32 1, ptr %9, align 4
  br label %49

17:                                               ; preds = %2
  %18 = load ptr, ptr %4, align 8
  %19 = load i32, ptr %18, align 4
  %20 = call i32 @setsockopt(i32 noundef %19, i32 noundef 1, i32 noundef 2, ptr noundef %8, i32 noundef 4) #9
  %21 = icmp slt i32 %20, 0
  br i1 %21, label %22, label %23

22:                                               ; preds = %17
  br label %45

23:                                               ; preds = %17
  %24 = load ptr, ptr %4, align 8
  %25 = load i32, ptr %24, align 4
  %26 = load i32, ptr %7, align 4
  %27 = call i32 @bind(i32 noundef %25, ptr noundef %6, i32 noundef %26) #9
  %28 = icmp slt i32 %27, 0
  br i1 %28, label %29, label %30

29:                                               ; preds = %23
  br label %45

30:                                               ; preds = %23
  %31 = load ptr, ptr %4, align 8
  %32 = load i32, ptr %31, align 4
  %33 = call i32 @getsockname(i32 noundef %32, ptr noundef %6, ptr noundef %7) #9
  %34 = icmp slt i32 %33, 0
  br i1 %34, label %35, label %36

35:                                               ; preds = %30
  br label %45

36:                                               ; preds = %30
  %37 = call zeroext i16 @slurm_get_port(ptr noundef %6)
  %38 = load ptr, ptr %5, align 8
  store i16 %37, ptr %38, align 2
  %39 = load ptr, ptr %4, align 8
  %40 = load i32, ptr %39, align 4
  %41 = call i32 @listen(i32 noundef %40, i32 noundef 4096) #9
  %42 = icmp slt i32 %41, 0
  br i1 %42, label %43, label %44

43:                                               ; preds = %36
  br label %45

44:                                               ; preds = %36
  store i32 1, ptr %3, align 4
  store i32 1, ptr %9, align 4
  br label %49

45:                                               ; preds = %43, %35, %29, %22
  %46 = load ptr, ptr %4, align 8
  %47 = load i32, ptr %46, align 4
  %48 = call i32 @close(i32 noundef %47)
  store i32 -1, ptr %3, align 4
  store i32 1, ptr %9, align 4
  br label %49

49:                                               ; preds = %45, %44, %16
  call void @llvm.lifetime.end.p0(i64 4, ptr %8) #9
  call void @llvm.lifetime.end.p0(i64 4, ptr %7) #9
  call void @llvm.lifetime.end.p0(i64 128, ptr %6) #9
  %50 = load i32, ptr %3, align 4
  ret i32 %50
}