; Function Attrs: nounwind uwtable
define dso_local range(i32 -1, 2) i32 @net_stream_listen(ptr noundef captures(none) initializes((0, 4)) %0, ptr noundef writeonly captures(none) %1) #0 {
  %3 = alloca %struct.sockaddr_storage, align 8
  %4 = alloca i32, align 4
  %5 = alloca i32, align 4
  call void @llvm.lifetime.start.p0(i64 128, ptr nonnull %3) #11
  call void @llvm.lifetime.start.p0(i64 4, ptr nonnull %4) #11
  store i32 128, ptr %4, align 4
  call void @llvm.lifetime.start.p0(i64 4, ptr nonnull %5) #11
  store i32 1, ptr %5, align 4
  call void @slurm_setup_addr(ptr noundef nonnull %3, i16 noundef zeroext 0) #11
  %6 = load i16, ptr %3, align 8
  %7 = zext i16 %6 to i32
  %8 = call i32 @socket(i32 noundef %7, i32 noundef 1, i32 noundef 6) #11
  store i32 %8, ptr %0, align 4
  %9 = icmp slt i32 %8, 0
  br i1 %9, label %29, label %10

10:                                               ; preds = %2
  %11 = call i32 @setsockopt(i32 noundef %8, i32 noundef 1, i32 noundef 2, ptr noundef nonnull %5, i32 noundef 4) #11
  %12 = icmp slt i32 %11, 0
  br i1 %12, label %26, label %13

13:                                               ; preds = %10
  %14 = load i32, ptr %0, align 4
  %15 = call i32 @bind(i32 noundef %14, ptr noundef nonnull %3, i32 noundef 128) #11
  %16 = icmp slt i32 %15, 0
  br i1 %16, label %26, label %17

17:                                               ; preds = %13
  %18 = load i32, ptr %0, align 4
  %19 = call i32 @getsockname(i32 noundef %18, ptr noundef nonnull %3, ptr noundef nonnull %4) #11
  %20 = icmp slt i32 %19, 0
  br i1 %20, label %26, label %21

21:                                               ; preds = %17
  %22 = call zeroext i16 @slurm_get_port(ptr noundef nonnull %3) #11
  store i16 %22, ptr %1, align 2
  %23 = load i32, ptr %0, align 4
  %24 = call i32 @listen(i32 noundef %23, i32 noundef 4096) #11
  %25 = icmp slt i32 %24, 0
  br i1 %25, label %26, label %29

26:                                               ; preds = %21, %17, %13, %10
  %27 = load i32, ptr %0, align 4
  %28 = call i32 @close(i32 noundef %27) #11
  br label %29

29:                                               ; preds = %21, %2, %26
  %.0 = phi i32 [ -1, %26 ], [ -1, %2 ], [ 1, %21 ]
  call void @llvm.lifetime.end.p0(i64 4, ptr nonnull %5) #11
  call void @llvm.lifetime.end.p0(i64 4, ptr nonnull %4) #11
  call void @llvm.lifetime.end.p0(i64 128, ptr nonnull %3) #11
  ret i32 %.0
}